; ModuleID = '19/3077.c'
source_filename = "19/3077.c"
target datalayout = "e-m:e-p270:32:32-p271:32:32-p272:64:64-i64:64-f80:128-n8:16:32:64-S128"
target triple = "x86_64-pc-linux-gnu"

@flag = dso_local constant i8 -128, align 1
@noo = dso_local constant i8 -126, align 1
@.str = private unnamed_addr constant [3 x i8] c"%s\00", align 1
@.str.1 = private unnamed_addr constant [3 x i8] c"%c\00", align 1
@.str.2 = private unnamed_addr constant [2 x i8] c"\0A\00", align 1

; Function Attrs: noinline nounwind uwtable
define dso_local i32 @main() #0 {
  %1 = alloca i32, align 4
  %2 = alloca i32, align 4
  %3 = alloca i32, align 4
  %4 = alloca i32, align 4
  %5 = alloca i32, align 4
  %6 = alloca [101 x i8], align 16
  %7 = alloca [101 x i8], align 16
  %8 = alloca [1001 x i8], align 16
  %9 = alloca i8*, align 8
  store i32 0, i32* %1, align 4
  %10 = getelementptr inbounds [1001 x i8], [1001 x i8]* %8, i64 0, i64 0
  %11 = call i32 (i8*, ...) bitcast (i32 (...)* @gets to i32 (i8*, ...)*)(i8* %10)
  %12 = getelementptr inbounds [101 x i8], [101 x i8]* %6, i64 0, i64 0
  %13 = call i32 (i8*, ...) bitcast (i32 (...)* @gets to i32 (i8*, ...)*)(i8* %12)
  %14 = getelementptr inbounds [101 x i8], [101 x i8]* %7, i64 0, i64 0
  %15 = call i32 (i8*, ...) bitcast (i32 (...)* @gets to i32 (i8*, ...)*)(i8* %14)
  %16 = getelementptr inbounds [101 x i8], [101 x i8]* %6, i64 0, i64 0
  %17 = call i64 @strlen(i8* %16) #3
  %18 = trunc i64 %17 to i32
  store i32 %18, i32* %3, align 4
  %19 = getelementptr inbounds [101 x i8], [101 x i8]* %7, i64 0, i64 0
  %20 = call i64 @strlen(i8* %19) #3
  %21 = trunc i64 %20 to i32
  store i32 %21, i32* %4, align 4
  %22 = getelementptr inbounds [1001 x i8], [1001 x i8]* %8, i64 0, i64 0
  %23 = call i64 @strlen(i8* %22) #3
  %24 = trunc i64 %23 to i32
  store i32 %24, i32* %5, align 4
  br label %25

25:                                               ; preds = %66, %40, %0
  %26 = getelementptr inbounds [1001 x i8], [1001 x i8]* %8, i64 0, i64 0
  %27 = getelementptr inbounds [101 x i8], [101 x i8]* %6, i64 0, i64 0
  %28 = call i8* @strstr(i8* %26, i8* %27) #3
  store i8* %28, i8** %9, align 8
  %29 = icmp ne i8* %28, null
  br i1 %29, label %30, label %72

30:                                               ; preds = %25
  %31 = load i8*, i8** %9, align 8
  %32 = getelementptr inbounds [1001 x i8], [1001 x i8]* %8, i64 0, i64 0
  %33 = icmp ne i8* %31, %32
  br i1 %33, label %34, label %42

34:                                               ; preds = %30
  %35 = load i8*, i8** %9, align 8
  %36 = getelementptr inbounds i8, i8* %35, i64 -1
  %37 = load i8, i8* %36, align 1
  %38 = sext i8 %37 to i32
  %39 = icmp ne i32 %38, 32
  br i1 %39, label %40, label %42

40:                                               ; preds = %34
  %41 = load i8*, i8** %9, align 8
  store i8 -126, i8* %41, align 1
  br label %25

42:                                               ; preds = %34, %30
  %43 = load i8*, i8** %9, align 8
  store i8 -128, i8* %43, align 1
  %44 = load i8*, i8** %9, align 8
  %45 = getelementptr inbounds i8, i8* %44, i32 1
  store i8* %45, i8** %9, align 8
  br label %46

46:                                               ; preds = %63, %42
  %47 = load i8*, i8** %9, align 8
  %48 = load i32, i32* %3, align 4
  %49 = sext i32 %48 to i64
  %50 = getelementptr inbounds i8, i8* %47, i64 %49
  %51 = getelementptr inbounds i8, i8* %50, i64 -1
  %52 = load i8, i8* %51, align 1
  %53 = sext i8 %52 to i32
  %54 = icmp ne i32 %53, 0
  br i1 %54, label %55, label %66

55:                                               ; preds = %46
  %56 = load i8*, i8** %9, align 8
  %57 = load i32, i32* %3, align 4
  %58 = sext i32 %57 to i64
  %59 = getelementptr inbounds i8, i8* %56, i64 %58
  %60 = getelementptr inbounds i8, i8* %59, i64 -1
  %61 = load i8, i8* %60, align 1
  %62 = load i8*, i8** %9, align 8
  store i8 %61, i8* %62, align 1
  br label %63

63:                                               ; preds = %55
  %64 = load i8*, i8** %9, align 8
  %65 = getelementptr inbounds i8, i8* %64, i32 1
  store i8* %65, i8** %9, align 8
  br label %46

66:                                               ; preds = %46
  %67 = load i8*, i8** %9, align 8
  store i8 0, i8* %67, align 1
  %68 = load i32, i32* %3, align 4
  %69 = sub nsw i32 %68, 1
  %70 = load i32, i32* %5, align 4
  %71 = sub nsw i32 %70, %69
  store i32 %71, i32* %5, align 4
  br label %25

72:                                               ; preds = %25
  store i32 0, i32* %2, align 4
  br label %73

73:                                               ; preds = %108, %72
  %74 = load i32, i32* %2, align 4
  %75 = load i32, i32* %5, align 4
  %76 = icmp slt i32 %74, %75
  br i1 %76, label %77, label %111

77:                                               ; preds = %73
  %78 = load i32, i32* %2, align 4
  %79 = sext i32 %78 to i64
  %80 = getelementptr inbounds [1001 x i8], [1001 x i8]* %8, i64 0, i64 %79
  %81 = load i8, i8* %80, align 1
  %82 = sext i8 %81 to i32
  %83 = icmp eq i32 %82, -128
  br i1 %83, label %84, label %87

84:                                               ; preds = %77
  %85 = getelementptr inbounds [101 x i8], [101 x i8]* %7, i64 0, i64 0
  %86 = call i32 (i8*, ...) @printf(i8* getelementptr inbounds ([3 x i8], [3 x i8]* @.str, i64 0, i64 0), i8* %85)
  br label %107

87:                                               ; preds = %77
  %88 = load i32, i32* %2, align 4
  %89 = sext i32 %88 to i64
  %90 = getelementptr inbounds [1001 x i8], [1001 x i8]* %8, i64 0, i64 %89
  %91 = load i8, i8* %90, align 1
  %92 = sext i8 %91 to i32
  %93 = icmp eq i32 %92, -126
  br i1 %93, label %94, label %99

94:                                               ; preds = %87
  %95 = getelementptr inbounds [101 x i8], [101 x i8]* %6, i64 0, i64 0
  %96 = load i8, i8* %95, align 16
  %97 = sext i8 %96 to i32
  %98 = call i32 (i8*, ...) @printf(i8* getelementptr inbounds ([3 x i8], [3 x i8]* @.str.1, i64 0, i64 0), i32 %97)
  br label %106

99:                                               ; preds = %87
  %100 = load i32, i32* %2, align 4
  %101 = sext i32 %100 to i64
  %102 = getelementptr inbounds [1001 x i8], [1001 x i8]* %8, i64 0, i64 %101
  %103 = load i8, i8* %102, align 1
  %104 = sext i8 %103 to i32
  %105 = call i32 (i8*, ...) @printf(i8* getelementptr inbounds ([3 x i8], [3 x i8]* @.str.1, i64 0, i64 0), i32 %104)
  br label %106

106:                                              ; preds = %99, %94
  br label %107

107:                                              ; preds = %106, %84
  br label %108

108:                                              ; preds = %107
  %109 = load i32, i32* %2, align 4
  %110 = add nsw i32 %109, 1
  store i32 %110, i32* %2, align 4
  br label %73

111:                                              ; preds = %73
  %112 = call i32 (i8*, ...) @printf(i8* getelementptr inbounds ([2 x i8], [2 x i8]* @.str.2, i64 0, i64 0))
  ret i32 0
}

declare dso_local i32 @gets(...) #1

; Function Attrs: nounwind readonly
declare dso_local i64 @strlen(i8*) #2

; Function Attrs: nounwind readonly
declare dso_local i8* @strstr(i8*, i8*) #2

declare dso_local i32 @printf(i8*, ...) #1


!llvm.module.flags = !{!0}
!llvm.ident = !{!1}

!0 = !{i32 1, !"wchar_size", i32 4}
!1 = !{!"clang version 10.0.0-4ubuntu1 "}
